; Function Attrs: mustprogress uwtable
define void @_ZN5Yosys14make_temp_fileENSt7__cxx1112basic_stringIcSt11char_traitsIcESaIcEEE(ptr dead_on_unwind noalias writable sret(%"class.std::__cxx11::basic_string") align 8 %0, ptr noundef nonnull %1) local_unnamed_addr #5 personality ptr @__gxx_personality_v0 {
  %3 = tail call noundef i64 @_ZNKSt7__cxx1112basic_stringIcSt11char_traitsIcESaIcEE5rfindEPKcmm(ptr noundef nonnull align 8 dereferenceable(32) %1, ptr noundef nonnull @.str.17, i64 noundef -1, i64 noundef 6) #39
  %4 = getelementptr inbounds nuw i8, ptr %1, i64 8
  %5 = load i64, ptr %4, align 8, !tbaa !49
  %6 = trunc i64 %5 to i32
  %7 = trunc i64 %3 to i32
  %reass.sub = sub i32 %6, %7
  %8 = add i32 %reass.sub, -6
  %9 = load ptr, ptr %1, align 8, !tbaa !44
  %10 = tail call noalias ptr @strdup(ptr noundef %9) #39
  %11 = tail call i32 @mkstemps(ptr noundef %10, i32 noundef %8)
  %12 = tail call i32 @close(i32 noundef %11)
  %13 = load i64, ptr %4, align 8, !tbaa !49
  %14 = tail call noundef i64 @strlen(ptr noundef nonnull dereferenceable(1) %10) #39
  %15 = tail call noundef nonnull align 8 dereferenceable(32) ptr @_ZNSt7__cxx1112basic_stringIcSt11char_traitsIcESaIcEE10_M_replaceEmmPKcm(ptr noundef nonnull align 8 dereferenceable(32) %1, i64 noundef 0, i64 noundef %13, ptr noundef nonnull %10, i64 noundef %14)
  tail call void @free(ptr noundef %10) #39
  %16 = getelementptr inbounds nuw i8, ptr %0, i64 16
  store ptr %16, ptr %0, align 8, !tbaa !47
  %17 = load ptr, ptr %1, align 8, !tbaa !44
  %18 = getelementptr inbounds nuw i8, ptr %1, i64 16
  %19 = icmp eq ptr %17, %18
  br i1 %19, label %20, label %_ZNKSt7__cxx1112basic_stringIcSt11char_traitsIcESaIcEE11_M_is_localEv.exit.i

20:                                               ; preds = %2
  %21 = load i64, ptr %4, align 8, !tbaa !49
  %22 = icmp ult i64 %21, 16
  tail call void @llvm.assume(i1 %22)
  %23 = add nuw nsw i64 %21, 1
  tail call void @llvm.memcpy.p0.p0.i64(ptr noundef nonnull align 8 dereferenceable(1) %16, ptr noundef nonnull align 8 dereferenceable(1) %18, i64 %23, i1 false)
  br label %_ZNSt7__cxx1112basic_stringIcSt11char_traitsIcESaIcEEC2EOS4_.exit

_ZNKSt7__cxx1112basic_stringIcSt11char_traitsIcESaIcEE11_M_is_localEv.exit.i: ; preds = %2
  store ptr %17, ptr %0, align 8, !tbaa !44
  %24 = load i64, ptr %18, align 8, !tbaa !43
  store i64 %24, ptr %16, align 8, !tbaa !43
  %.pre = load i64, ptr %4, align 8, !tbaa !49
  br label %_ZNSt7__cxx1112basic_stringIcSt11char_traitsIcESaIcEEC2EOS4_.exit

_ZNSt7__cxx1112basic_stringIcSt11char_traitsIcESaIcEEC2EOS4_.exit: ; preds = %20, %_ZNKSt7__cxx1112basic_stringIcSt11char_traitsIcESaIcEE11_M_is_localEv.exit.i
  %25 = phi i64 [ %21, %20 ], [ %.pre, %_ZNKSt7__cxx1112basic_stringIcSt11char_traitsIcESaIcEE11_M_is_localEv.exit.i ]
  %26 = getelementptr inbounds nuw i8, ptr %0, i64 8
  store i64 %25, ptr %26, align 8, !tbaa !49
  store ptr %18, ptr %1, align 8, !tbaa !44
  store i64 0, ptr %4, align 8, !tbaa !49
  store i8 0, ptr %18, align 1, !tbaa !43
  ret void
}